; Function Attrs: mustprogress noreturn nounwind uwtable
define dso_local void @_ZN4absl12log_internal22LogMessageQuietlyFatalD2Ev(ptr noundef nonnull align 8 dereferenceable(16) %0) unnamed_addr #20 align 2 personality ptr @__gxx_personality_v0 {
  invoke void @_ZN4absl12log_internal10LogMessage5FlushEv(ptr noundef nonnull align 8 dereferenceable(16) %0)
          to label %2 unwind label %4

2:                                                ; preds = %1
  invoke void @_ZN4absl12log_internal10LogMessage11FailQuietlyEv() #34
          to label %3 unwind label %4

3:                                                ; preds = %2
  unreachable

4:                                                ; preds = %2, %1
  %5 = landingpad { ptr, i32 }
          catch ptr null
  %6 = extractvalue { ptr, i32 } %5, 0
  tail call void @__clang_call_terminate(ptr %6) #33
  unreachable
}